; Function Attrs: nofree norecurse nosync nounwind memory(argmem: write) uwtable
define void @lv_cache_entry_init(ptr noundef writeonly captures(address_is_null) %0, ptr noundef %1, i32 noundef %2) local_unnamed_addr #0 {
  %.not = icmp eq ptr %0, null
  br i1 %.not, label %.preheader, label %4

.preheader:                                       ; preds = %3, %.preheader
  br label %.preheader

4:                                                ; preds = %3
  %.not8 = icmp eq ptr %1, null
  br i1 %.not8, label %.preheader9, label %5

.preheader9:                                      ; preds = %4, %.preheader9
  br label %.preheader9

5:                                                ; preds = %4
  store ptr %1, ptr %0, align 8, !tbaa !15
  %6 = getelementptr inbounds nuw i8, ptr %0, i64 12
  store i32 %2, ptr %6, align 4, !tbaa !11
  %7 = getelementptr inbounds nuw i8, ptr %0, i64 8
  store i32 0, ptr %7, align 8, !tbaa !3
  %8 = getelementptr inbounds nuw i8, ptr %0, i64 16
  store i8 0, ptr %8, align 8, !tbaa !12
  ret void
}